target datalayout = "e-m:e-p270:32:32-p271:32:32-p272:64:64-i64:64-i128:128-f80:128-n8:16:32:64-S128"
target triple = "x86_64-pc-linux-gnu"

%struct.H5S_hyper_span_info_t = type { i32, ptr, ptr, [2 x %struct.H5S_hyper_op_info_t], ptr, ptr, [0 x i64] }
%struct.H5S_hyper_op_info_t = type { i64, %union.anon.1 }
%union.anon.1 = type { ptr }
%struct.H5S_hyper_span_t = type { i64, i64, ptr, ptr }

@H5S_init_g = external global i8, align 1
@H5_libterm_g = external global i8, align 1

; Function Attrs: nounwind uwtable
define internal i64 @H5S__hyper_span_nblocks_helper(ptr noundef %0, i32 noundef %1, i64 noundef %2) #0 {
  %4 = alloca ptr, align 8
  %5 = alloca i32, align 4
  %6 = alloca i64, align 8
  %7 = alloca i64, align 8
  %8 = alloca ptr, align 8
  store ptr %0, ptr %4, align 8, !tbaa !107
  store i32 %1, ptr %5, align 4, !tbaa !10
  store i64 %2, ptr %6, align 8, !tbaa !15
  call void @llvm.lifetime.start.p0(i64 8, ptr %7) #7
  store i64 0, ptr %7, align 8, !tbaa !15
  %9 = load i8, ptr @H5S_init_g, align 1, !tbaa !8, !range !12, !noundef !13
  %10 = trunc i8 %9 to i1
  br i1 %10, label %15, label %11

11:                                               ; preds = %3
  %12 = load i8, ptr @H5_libterm_g, align 1, !tbaa !8, !range !12, !noundef !13
  %13 = trunc i8 %12 to i1
  %14 = xor i1 %13, true
  br label %15

15:                                               ; preds = %11, %3
  %16 = phi i1 [ true, %3 ], [ %14, %11 ]
  %17 = xor i1 %16, true
  %18 = xor i1 %17, true
  %19 = zext i1 %18 to i32
  %20 = sext i32 %19 to i64
  %21 = call i64 @llvm.expect.i64(i64 %20, i64 1)
  %22 = icmp ne i64 %21, 0
  br i1 %22, label %23, label %93

23:                                               ; preds = %15
  %24 = load ptr, ptr %4, align 8, !tbaa !107
  %25 = getelementptr inbounds nuw %struct.H5S_hyper_span_info_t, ptr %24, i32 0, i32 3
  %26 = load i32, ptr %5, align 4, !tbaa !10
  %27 = zext i32 %26 to i64
  %28 = getelementptr inbounds nuw [2 x %struct.H5S_hyper_op_info_t], ptr %25, i64 0, i64 %27
  %29 = getelementptr inbounds nuw %struct.H5S_hyper_op_info_t, ptr %28, i32 0, i32 0
  %30 = load i64, ptr %29, align 8, !tbaa !153
  %31 = load i64, ptr %6, align 8, !tbaa !15
  %32 = icmp eq i64 %30, %31
  br i1 %32, label %33, label %41

33:                                               ; preds = %23
  %34 = load ptr, ptr %4, align 8, !tbaa !107
  %35 = getelementptr inbounds nuw %struct.H5S_hyper_span_info_t, ptr %34, i32 0, i32 3
  %36 = load i32, ptr %5, align 4, !tbaa !10
  %37 = zext i32 %36 to i64
  %38 = getelementptr inbounds nuw [2 x %struct.H5S_hyper_op_info_t], ptr %35, i64 0, i64 %37
  %39 = getelementptr inbounds nuw %struct.H5S_hyper_op_info_t, ptr %38, i32 0, i32 1
  %40 = load i64, ptr %39, align 8, !tbaa !14
  store i64 %40, ptr %7, align 8, !tbaa !15
  br label %92

41:                                               ; preds = %23
  call void @llvm.lifetime.start.p0(i64 8, ptr %8) #7
  %42 = load ptr, ptr %4, align 8, !tbaa !107
  %43 = getelementptr inbounds nuw %struct.H5S_hyper_span_info_t, ptr %42, i32 0, i32 4
  %44 = load ptr, ptr %43, align 8, !tbaa !99
  store ptr %44, ptr %8, align 8, !tbaa !99
  %45 = load ptr, ptr %8, align 8, !tbaa !99
  %46 = getelementptr inbounds nuw %struct.H5S_hyper_span_t, ptr %45, i32 0, i32 2
  %47 = load ptr, ptr %46, align 8, !tbaa !103
  %48 = icmp ne ptr %47, null
  br i1 %48, label %49, label %66

49:                                               ; preds = %41
  br label %50

50:                                               ; preds = %53, %49
  %51 = load ptr, ptr %8, align 8, !tbaa !99
  %52 = icmp ne ptr %51, null
  br i1 %52, label %53, label %65

53:                                               ; preds = %50
  %54 = load ptr, ptr %8, align 8, !tbaa !99
  %55 = getelementptr inbounds nuw %struct.H5S_hyper_span_t, ptr %54, i32 0, i32 2
  %56 = load ptr, ptr %55, align 8, !tbaa !103
  %57 = load i32, ptr %5, align 4, !tbaa !10
  %58 = load i64, ptr %6, align 8, !tbaa !15
  %59 = call i64 @H5S__hyper_span_nblocks_helper(ptr noundef %56, i32 noundef %57, i64 noundef %58)
  %60 = load i64, ptr %7, align 8, !tbaa !15
  %61 = add i64 %60, %59
  store i64 %61, ptr %7, align 8, !tbaa !15
  %62 = load ptr, ptr %8, align 8, !tbaa !99
  %63 = getelementptr inbounds nuw %struct.H5S_hyper_span_t, ptr %62, i32 0, i32 3
  %64 = load ptr, ptr %63, align 8, !tbaa !108
  store ptr %64, ptr %8, align 8, !tbaa !99
  br label %50, !llvm.loop !262

65:                                               ; preds = %50
  br label %77

66:                                               ; preds = %41
  br label %67

67:                                               ; preds = %70, %66
  %68 = load ptr, ptr %8, align 8, !tbaa !99
  %69 = icmp ne ptr %68, null
  br i1 %69, label %70, label %76

70:                                               ; preds = %67
  %71 = load i64, ptr %7, align 8, !tbaa !15
  %72 = add i64 %71, 1
  store i64 %72, ptr %7, align 8, !tbaa !15
  %73 = load ptr, ptr %8, align 8, !tbaa !99
  %74 = getelementptr inbounds nuw %struct.H5S_hyper_span_t, ptr %73, i32 0, i32 3
  %75 = load ptr, ptr %74, align 8, !tbaa !108
  store ptr %75, ptr %8, align 8, !tbaa !99
  br label %67, !llvm.loop !263

76:                                               ; preds = %67
  br label %77

77:                                               ; preds = %76, %65
  %78 = load i64, ptr %6, align 8, !tbaa !15
  %79 = load ptr, ptr %4, align 8, !tbaa !107
  %80 = getelementptr inbounds nuw %struct.H5S_hyper_span_info_t, ptr %79, i32 0, i32 3
  %81 = load i32, ptr %5, align 4, !tbaa !10
  %82 = zext i32 %81 to i64
  %83 = getelementptr inbounds nuw [2 x %struct.H5S_hyper_op_info_t], ptr %80, i64 0, i64 %82
  %84 = getelementptr inbounds nuw %struct.H5S_hyper_op_info_t, ptr %83, i32 0, i32 0
  store i64 %78, ptr %84, align 8, !tbaa !153
  %85 = load i64, ptr %7, align 8, !tbaa !15
  %86 = load ptr, ptr %4, align 8, !tbaa !107
  %87 = getelementptr inbounds nuw %struct.H5S_hyper_span_info_t, ptr %86, i32 0, i32 3
  %88 = load i32, ptr %5, align 4, !tbaa !10
  %89 = zext i32 %88 to i64
  %90 = getelementptr inbounds nuw [2 x %struct.H5S_hyper_op_info_t], ptr %87, i64 0, i64 %89
  %91 = getelementptr inbounds nuw %struct.H5S_hyper_op_info_t, ptr %90, i32 0, i32 1
  store i64 %85, ptr %91, align 8, !tbaa !14
  call void @llvm.lifetime.end.p0(i64 8, ptr %8) #7
  br label %92

92:                                               ; preds = %77, %33
  br label %93

93:                                               ; preds = %92, %15
  %94 = load i64, ptr %7, align 8, !tbaa !15
  call void @llvm.lifetime.end.p0(i64 8, ptr %7) #7
  ret i64 %94
}