; Function Attrs: nofree nosync nounwind memory(readwrite, inaccessiblemem: none) uwtable
define internal fastcc i64 @H5S__hyper_span_nblocks_helper(ptr noundef captures(none) %0, i64 noundef %1) unnamed_addr #3 {
  %3 = load i8, ptr @H5S_init_g, align 1, !tbaa !3, !range !7, !noundef !8
  %4 = trunc nuw i8 %3 to i1
  %5 = load i8, ptr @H5_libterm_g, align 1, !range !7
  %6 = trunc nuw i8 %5 to i1
  %7 = xor i1 %6, true
  %8 = select i1 %4, i1 true, i1 %7
  br i1 %8, label %9, label %31, !prof !9

9:                                                ; preds = %2
  %10 = getelementptr inbounds nuw i8, ptr %0, i64 24
  %11 = load i64, ptr %10, align 8, !tbaa !146
  %12 = icmp eq i64 %11, %1
  br i1 %12, label %13, label %16

13:                                               ; preds = %9
  %14 = getelementptr inbounds nuw i8, ptr %0, i64 32
  %15 = load i64, ptr %14, align 8, !tbaa !10
  br label %31

16:                                               ; preds = %9
  %17 = getelementptr inbounds nuw i8, ptr %0, i64 56
  %18 = load ptr, ptr %17, align 8, !tbaa !88
  %19 = getelementptr inbounds nuw i8, ptr %18, i64 16
  %20 = load ptr, ptr %19, align 8, !tbaa !92
  %.not = icmp eq ptr %20, null
  br i1 %.not, label %.lr.ph35, label %.lr.ph

.lr.ph:                                           ; preds = %16, %.lr.ph
  %.031 = phi ptr [ %26, %.lr.ph ], [ %18, %16 ]
  %.12330 = phi i64 [ %24, %.lr.ph ], [ 0, %16 ]
  %21 = getelementptr inbounds nuw i8, ptr %.031, i64 16
  %22 = load ptr, ptr %21, align 8, !tbaa !92
  %23 = tail call fastcc i64 @H5S__hyper_span_nblocks_helper(ptr noundef %22, i64 noundef %1)
  %24 = add i64 %23, %.12330
  %25 = getelementptr inbounds nuw i8, ptr %.031, i64 24
  %26 = load ptr, ptr %25, align 8, !tbaa !96
  %.not26 = icmp eq ptr %26, null
  br i1 %.not26, label %.loopexit, label %.lr.ph, !llvm.loop !250

.lr.ph35:                                         ; preds = %16, %.lr.ph35
  %.134 = phi ptr [ %29, %.lr.ph35 ], [ %18, %16 ]
  %.333 = phi i64 [ %27, %.lr.ph35 ], [ 0, %16 ]
  %27 = add i64 %.333, 1
  %28 = getelementptr inbounds nuw i8, ptr %.134, i64 24
  %29 = load ptr, ptr %28, align 8, !tbaa !96
  %.not25 = icmp eq ptr %29, null
  br i1 %.not25, label %.loopexit, label %.lr.ph35, !llvm.loop !251

.loopexit:                                        ; preds = %.lr.ph, %.lr.ph35
  %.2 = phi i64 [ %27, %.lr.ph35 ], [ %24, %.lr.ph ]
  store i64 %1, ptr %10, align 8, !tbaa !146
  %30 = getelementptr inbounds nuw i8, ptr %0, i64 32
  store i64 %.2, ptr %30, align 8, !tbaa !10
  br label %31

31:                                               ; preds = %13, %.loopexit, %2
  %.022 = phi i64 [ %15, %13 ], [ %.2, %.loopexit ], [ 0, %2 ]
  ret i64 %.022
}